target datalayout = "e-m:e-p270:32:32-p271:32:32-p272:64:64-i64:64-i128:128-f80:128-n8:16:32:64-S128"
target triple = "x86_64-pc-linux-gnu"

%"struct.vcpkg::StringLiteral" = type { %"struct.vcpkg::ZStringView" }
%"struct.vcpkg::ZStringView" = type { %"struct.vcpkg::StringView" }
%"struct.vcpkg::StringView" = type { ptr, i64 }
%"struct.vcpkg::LineInfo" = type { i32, ptr }

@.str = private unnamed_addr constant [123 x i8] c"generated/home/dtcxzyw/WorkSpace/Projects/compilers/llvm-opt-benchmark/bench/vcpkg/vcpkg-tool/src/vcpkg/commands.build.cpp\00", align 1
@.str.3 = private unnamed_addr constant [9 x i8] c"BUILT_IN\00", align 1
@.str.4 = private unnamed_addr constant [6 x i8] c"ARIA2\00", align 1

; Function Attrs: mustprogress nounwind uwtable
define linkonce_odr dso_local void @_ZN5vcpkg10StringViewC2EPKcm(ptr noundef nonnull align 8 dereferenceable(16) %0, ptr noundef %1, i64 noundef %2) unnamed_addr #4 comdat align 2 {
  %4 = alloca ptr, align 8
  %5 = alloca ptr, align 8
  %6 = alloca i64, align 8
  store ptr %0, ptr %4, align 8
  store ptr %1, ptr %5, align 8
  store i64 %2, ptr %6, align 8
  %7 = load ptr, ptr %4, align 8
  %8 = getelementptr inbounds %"struct.vcpkg::StringView", ptr %7, i32 0, i32 0
  %9 = load ptr, ptr %5, align 8
  store ptr %9, ptr %8, align 8
  %10 = getelementptr inbounds %"struct.vcpkg::StringView", ptr %7, i32 0, i32 1
  %11 = load i64, ptr %6, align 8
  store i64 %11, ptr %10, align 8
  ret void
}

; Function Attrs: mustprogress nounwind uwtable
define linkonce_odr dso_local void @_ZN5vcpkg11ZStringViewC2EPKcm(ptr noundef nonnull align 8 dereferenceable(16) %0, ptr noundef %1, i64 noundef %2) unnamed_addr #4 comdat align 2 {
  %4 = alloca ptr, align 8
  %5 = alloca ptr, align 8
  %6 = alloca i64, align 8
  store ptr %0, ptr %4, align 8
  store ptr %1, ptr %5, align 8
  store i64 %2, ptr %6, align 8
  %7 = load ptr, ptr %4, align 8
  %8 = load ptr, ptr %5, align 8
  %9 = load i64, ptr %6, align 8
  call void @_ZN5vcpkg10StringViewC2EPKcm(ptr noundef nonnull align 8 dereferenceable(16) %7, ptr noundef %8, i64 noundef %9) #8
  ret void
}

; Function Attrs: mustprogress nounwind uwtable
define linkonce_odr dso_local void @_ZN5vcpkg13StringLiteralC2ILi6EEERAT__Kc(ptr noundef nonnull align 8 dereferenceable(16) %0, ptr noundef nonnull align 1 dereferenceable(6) %1) unnamed_addr #4 comdat align 2 {
  %3 = alloca ptr, align 8
  %4 = alloca ptr, align 8
  store ptr %0, ptr %3, align 8
  store ptr %1, ptr %4, align 8
  %5 = load ptr, ptr %3, align 8
  %6 = load ptr, ptr %4, align 8
  %7 = getelementptr inbounds [6 x i8], ptr %6, i64 0, i64 0
  call void @_ZN5vcpkg11ZStringViewC2EPKcm(ptr noundef nonnull align 8 dereferenceable(16) %5, ptr noundef %7, i64 noundef 5) #8
  ret void
}

; Function Attrs: mustprogress nounwind uwtable
define linkonce_odr dso_local void @_ZN5vcpkg13StringLiteralC2ILi9EEERAT__Kc(ptr noundef nonnull align 8 dereferenceable(16) %0, ptr noundef nonnull align 1 dereferenceable(9) %1) unnamed_addr #4 comdat align 2 {
  %3 = alloca ptr, align 8
  %4 = alloca ptr, align 8
  store ptr %0, ptr %3, align 8
  store ptr %1, ptr %4, align 8
  %5 = load ptr, ptr %3, align 8
  %6 = load ptr, ptr %4, align 8
  %7 = getelementptr inbounds [9 x i8], ptr %6, i64 0, i64 0
  call void @_ZN5vcpkg11ZStringViewC2EPKcm(ptr noundef nonnull align 8 dereferenceable(16) %5, ptr noundef %7, i64 noundef 8) #8
  ret void
}

; Function Attrs: mustprogress uwtable
define dso_local { ptr, i64 } @_ZN5vcpkg14to_string_viewENS_12DownloadToolE(i32 noundef %0) #0 {
  %2 = alloca %"struct.vcpkg::StringLiteral", align 8
  %3 = alloca i32, align 4
  %4 = alloca %"struct.vcpkg::LineInfo", align 8
  store i32 %0, ptr %3, align 4
  %5 = load i32, ptr %3, align 4
  switch i32 %5, label %8 [
    i32 0, label %6
    i32 1, label %7
  ]

6:                                                ; preds = %1
  call void @_ZN5vcpkg13StringLiteralC2ILi9EEERAT__Kc(ptr noundef nonnull align 8 dereferenceable(16) %2, ptr noundef nonnull align 1 dereferenceable(9) @.str.3)
  br label %11

7:                                                ; preds = %1
  call void @_ZN5vcpkg13StringLiteralC2ILi6EEERAT__Kc(ptr noundef nonnull align 8 dereferenceable(16) %2, ptr noundef nonnull align 1 dereferenceable(6) @.str.4)
  br label %11

8:                                                ; preds = %1
  %9 = getelementptr inbounds %"struct.vcpkg::LineInfo", ptr %4, i32 0, i32 0
  store i32 255, ptr %9, align 8
  %10 = getelementptr inbounds %"struct.vcpkg::LineInfo", ptr %4, i32 0, i32 1
  store ptr @.str, ptr %10, align 8
  call void @_ZN5vcpkg6Checks11unreachableERKNS_8LineInfoE(ptr noundef nonnull align 8 dereferenceable(16) %4) #20
  unreachable

11:                                               ; preds = %7, %6
  %12 = getelementptr inbounds %"struct.vcpkg::StringLiteral", ptr %2, i32 0, i32 0
  %13 = getelementptr inbounds %"struct.vcpkg::ZStringView", ptr %12, i32 0, i32 0
  %14 = load { ptr, i64 }, ptr %13, align 8
  ret { ptr, i64 } %14
}