; Function Attrs: mustprogress uwtable
define dso_local { ptr, i64 } @_ZN5vcpkg14to_string_viewENS_12DownloadToolE(i32 noundef %0) local_unnamed_addr #2 {
  %2 = alloca %"struct.vcpkg::LineInfo", align 8
  switch i32 %0, label %4 [
    i32 0, label %6
    i32 1, label %3
  ]

3:                                                ; preds = %1
  br label %6

4:                                                ; preds = %1
  store i32 255, ptr %2, align 8
  %5 = getelementptr inbounds i8, ptr %2, i64 8
  store ptr @.str, ptr %5, align 8
  call void @_ZN5vcpkg6Checks11unreachableERKNS_8LineInfoE(ptr noundef nonnull align 8 dereferenceable(16) %2) #24
  unreachable

6:                                                ; preds = %1, %3
  %.sroa.3.0 = phi i64 [ 5, %3 ], [ 8, %1 ]
  %.sroa.0.0 = phi ptr [ @.str.4, %3 ], [ @.str.3, %1 ]
  %.fca.0.insert = insertvalue { ptr, i64 } poison, ptr %.sroa.0.0, 0
  %.fca.1.insert = insertvalue { ptr, i64 } %.fca.0.insert, i64 %.sroa.3.0, 1
  ret { ptr, i64 } %.fca.1.insert
}